target datalayout = "e-m:e-p270:32:32-p271:32:32-p272:64:64-i64:64-i128:128-f80:128-n8:16:32:64-S128"
target triple = "x86_64-unknown-linux-gnu"

@_ZZN8facebook3jsi7Runtime15instrumentationEvE14sharedInstance = internal global { ptr } { ptr getelementptr inbounds ({ [16 x ptr] }, ptr @_ZTVZN8facebook3jsi7Runtime15instrumentationEvE17NoInstrumentation, i32 0, i32 0, i32 2) }, align 8
@_ZGVZN8facebook3jsi7Runtime15instrumentationEvE14sharedInstance = internal global i64 0, align 8
@__dso_handle = external hidden global i8

; Function Attrs: mustprogress nounwind uwtable
define noundef nonnull align 8 dereferenceable(8) ptr @_ZN8facebook3jsi7Runtime15instrumentationEv(ptr noundef nonnull align 8 dereferenceable(8) %this) unnamed_addr #0 align 2 {
entry:
  %this.addr = alloca ptr, align 8
  store ptr %this, ptr %this.addr, align 8
  %0 = load atomic i8, ptr @_ZGVZN8facebook3jsi7Runtime15instrumentationEvE14sharedInstance acquire, align 8
  %guard.uninitialized = icmp eq i8 %0, 0
  br i1 %guard.uninitialized, label %init.check, label %init.end, !prof !4

init.check:                                       ; preds = %entry
  %1 = call i32 @__cxa_guard_acquire(ptr @_ZGVZN8facebook3jsi7Runtime15instrumentationEvE14sharedInstance) #6
  %tobool = icmp ne i32 %1, 0
  br i1 %tobool, label %init, label %init.end

init:                                             ; preds = %init.check
  %2 = call i32 @__cxa_atexit(ptr @_ZZN8facebook3jsi7Runtime15instrumentationEvEN17NoInstrumentationD2Ev, ptr @_ZZN8facebook3jsi7Runtime15instrumentationEvE14sharedInstance, ptr @__dso_handle) #6
  call void @__cxa_guard_release(ptr @_ZGVZN8facebook3jsi7Runtime15instrumentationEvE14sharedInstance) #6
  br label %init.end

init.end:                                         ; preds = %init, %init.check, %entry
  ret ptr @_ZZN8facebook3jsi7Runtime15instrumentationEvE14sharedInstance
}