; Function Attrs: mustprogress nofree nounwind uwtable
define noundef nonnull align 8 dereferenceable(8) ptr @_ZN8facebook3jsi7Runtime15instrumentationEv(ptr nocapture nonnull readnone align 8 %this) unnamed_addr #9 align 2 {
entry:
  %0 = load atomic i8, ptr @_ZGVZN8facebook3jsi7Runtime15instrumentationEvE14sharedInstance acquire, align 8
  %guard.uninitialized = icmp eq i8 %0, 0
  br i1 %guard.uninitialized, label %init.check, label %init.end, !prof !7

init.check:                                       ; preds = %entry
  %1 = tail call i32 @__cxa_guard_acquire(ptr nonnull @_ZGVZN8facebook3jsi7Runtime15instrumentationEvE14sharedInstance) #23
  %tobool.not = icmp eq i32 %1, 0
  br i1 %tobool.not, label %init.end, label %init

init:                                             ; preds = %init.check
  tail call void @__cxa_guard_release(ptr nonnull @_ZGVZN8facebook3jsi7Runtime15instrumentationEvE14sharedInstance) #23
  br label %init.end

init.end:                                         ; preds = %init, %init.check, %entry
  ret ptr @_ZZN8facebook3jsi7Runtime15instrumentationEvE14sharedInstance
}